; Function Attrs: mustprogress nounwind uwtable
define noundef nonnull align 8 dereferenceable(32) ptr @_ZN4LIEF2PE17DynamicRelocation6fixupsESt10unique_ptrINS0_12DynamicFixupESt14default_deleteIS3_EE(ptr noundef nonnull returned align 8 dereferenceable(32) %0, ptr noundef captures(none) %1) local_unnamed_addr #1 align 2 {
  %3 = getelementptr inbounds nuw i8, ptr %0, i64 24
  %4 = load ptr, ptr %1, align 8, !tbaa !21
  store ptr null, ptr %1, align 8, !tbaa !21
  %5 = load ptr, ptr %3, align 8, !tbaa !21
  store ptr %4, ptr %3, align 8, !tbaa !21
  %.not.i.i.i.i = icmp eq ptr %5, null
  br i1 %.not.i.i.i.i, label %_ZNSt10unique_ptrIN4LIEF2PE12DynamicFixupESt14default_deleteIS2_EEaSEOS5_.exit, label %_ZNKSt14default_deleteIN4LIEF2PE12DynamicFixupEEclEPS2_.exit.i.i.i.i

_ZNKSt14default_deleteIN4LIEF2PE12DynamicFixupEEclEPS2_.exit.i.i.i.i: ; preds = %2
  %6 = load ptr, ptr %5, align 8, !tbaa !3
  %7 = getelementptr inbounds nuw i8, ptr %6, i64 24
  %8 = load ptr, ptr %7, align 8
  tail call void %8(ptr noundef nonnull align 8 dereferenceable(12) %5) #9
  br label %_ZNSt10unique_ptrIN4LIEF2PE12DynamicFixupESt14default_deleteIS2_EEaSEOS5_.exit

_ZNSt10unique_ptrIN4LIEF2PE12DynamicFixupESt14default_deleteIS2_EEaSEOS5_.exit: ; preds = %2, %_ZNKSt14default_deleteIN4LIEF2PE12DynamicFixupEEclEPS2_.exit.i.i.i.i
  ret ptr %0
}